target datalayout = "e-m:e-p270:32:32-p271:32:32-p272:64:64-i64:64-i128:128-f80:128-n8:16:32:64-S128"
target triple = "x86_64-pc-linux-gnu"

%struct.APEContext = type { ptr, ptr, %struct.BswapDSPContext, %struct.LLAudDSPContext, i32, i32, i32, i32, i32, i32, i32, i32, i32, i32, %struct.APEPredictor, %struct.APEPredictor64, ptr, i32, [2 x ptr], ptr, i32, [2 x ptr], i32, [3 x ptr], %struct.APERangecoder, %struct.APERice, %struct.APERice, [3 x [2 x %struct.APEFilter]], %struct.GetBitContext, ptr, ptr, i32, ptr, i32, i32, ptr, ptr, ptr, ptr }
%struct.BswapDSPContext = type { ptr, ptr }
%struct.LLAudDSPContext = type { ptr, ptr }
%struct.APEPredictor = type { ptr, [2 x i32], [2 x i32], [2 x i32], [2 x [4 x i32]], [2 x [5 x i32]], [562 x i32], i32 }
%struct.APEPredictor64 = type { ptr, [2 x i64], [2 x i64], [2 x i64], [2 x [4 x i64]], [2 x [5 x i64]], [562 x i64] }
%struct.APERangecoder = type { i32, i32, i32, i32 }
%struct.APERice = type { i32, i32 }
%struct.APEFilter = type { ptr, ptr, ptr, ptr, i32 }
%struct.GetBitContext = type { ptr, ptr, i32, i32, i32 }

; Function Attrs: alwaysinline nounwind uwtable
define internal i32 @bytestream_get_byte(ptr noundef %0) #7 {
  %2 = alloca ptr, align 8
  store ptr %0, ptr %2, align 8, !tbaa !159
  %3 = load ptr, ptr %2, align 8, !tbaa !159
  %4 = load ptr, ptr %3, align 8, !tbaa !77
  %5 = getelementptr inbounds i8, ptr %4, i64 1
  store ptr %5, ptr %3, align 8, !tbaa !77
  %6 = load ptr, ptr %2, align 8, !tbaa !159
  %7 = load ptr, ptr %6, align 8, !tbaa !77
  %8 = getelementptr inbounds i8, ptr %7, i64 -1
  %9 = getelementptr inbounds i8, ptr %8, i64 0
  %10 = load i8, ptr %9, align 1, !tbaa !51
  %11 = zext i8 %10 to i32
  ret i32 %11
}

; Function Attrs: inlinehint nounwind uwtable
define internal void @range_start_decoding(ptr noundef %0) #5 {
  %2 = alloca ptr, align 8
  store ptr %0, ptr %2, align 8, !tbaa !29
  %3 = load ptr, ptr %2, align 8, !tbaa !29
  %4 = getelementptr inbounds nuw %struct.APEContext, ptr %3, i32 0, i32 32
  %5 = call i32 @bytestream_get_byte(ptr noundef %4)
  %6 = load ptr, ptr %2, align 8, !tbaa !29
  %7 = getelementptr inbounds nuw %struct.APEContext, ptr %6, i32 0, i32 24
  %8 = getelementptr inbounds nuw %struct.APERangecoder, ptr %7, i32 0, i32 3
  store i32 %5, ptr %8, align 4, !tbaa !157
  %9 = load ptr, ptr %2, align 8, !tbaa !29
  %10 = getelementptr inbounds nuw %struct.APEContext, ptr %9, i32 0, i32 24
  %11 = getelementptr inbounds nuw %struct.APERangecoder, ptr %10, i32 0, i32 3
  %12 = load i32, ptr %11, align 4, !tbaa !157
  %13 = lshr i32 %12, 1
  %14 = load ptr, ptr %2, align 8, !tbaa !29
  %15 = getelementptr inbounds nuw %struct.APEContext, ptr %14, i32 0, i32 24
  %16 = getelementptr inbounds nuw %struct.APERangecoder, ptr %15, i32 0, i32 0
  store i32 %13, ptr %16, align 8, !tbaa !156
  %17 = load ptr, ptr %2, align 8, !tbaa !29
  %18 = getelementptr inbounds nuw %struct.APEContext, ptr %17, i32 0, i32 24
  %19 = getelementptr inbounds nuw %struct.APERangecoder, ptr %18, i32 0, i32 1
  store i32 128, ptr %19, align 4, !tbaa !154
  ret void
}

; Function Attrs: inlinehint nounwind uwtable
define internal void @range_dec_normalize(ptr noundef %0) #5 {
  %2 = alloca ptr, align 8
  store ptr %0, ptr %2, align 8, !tbaa !29
  br label %3

3:                                                ; preds = %40, %1
  %4 = load ptr, ptr %2, align 8, !tbaa !29
  %5 = getelementptr inbounds nuw %struct.APEContext, ptr %4, i32 0, i32 24
  %6 = getelementptr inbounds nuw %struct.APERangecoder, ptr %5, i32 0, i32 1
  %7 = load i32, ptr %6, align 4, !tbaa !154
  %8 = icmp ule i32 %7, 8388608
  br i1 %8, label %9, label %61

9:                                                ; preds = %3
  %10 = load ptr, ptr %2, align 8, !tbaa !29
  %11 = getelementptr inbounds nuw %struct.APEContext, ptr %10, i32 0, i32 24
  %12 = getelementptr inbounds nuw %struct.APERangecoder, ptr %11, i32 0, i32 3
  %13 = load i32, ptr %12, align 4, !tbaa !157
  %14 = shl i32 %13, 8
  store i32 %14, ptr %12, align 4, !tbaa !157
  %15 = load ptr, ptr %2, align 8, !tbaa !29
  %16 = getelementptr inbounds nuw %struct.APEContext, ptr %15, i32 0, i32 32
  %17 = load ptr, ptr %16, align 8, !tbaa !82
  %18 = load ptr, ptr %2, align 8, !tbaa !29
  %19 = getelementptr inbounds nuw %struct.APEContext, ptr %18, i32 0, i32 30
  %20 = load ptr, ptr %19, align 8, !tbaa !83
  %21 = icmp ult ptr %17, %20
  br i1 %21, label %22, label %37

22:                                               ; preds = %9
  %23 = load ptr, ptr %2, align 8, !tbaa !29
  %24 = getelementptr inbounds nuw %struct.APEContext, ptr %23, i32 0, i32 32
  %25 = load ptr, ptr %24, align 8, !tbaa !82
  %26 = load i8, ptr %25, align 1, !tbaa !51
  %27 = zext i8 %26 to i32
  %28 = load ptr, ptr %2, align 8, !tbaa !29
  %29 = getelementptr inbounds nuw %struct.APEContext, ptr %28, i32 0, i32 24
  %30 = getelementptr inbounds nuw %struct.APERangecoder, ptr %29, i32 0, i32 3
  %31 = load i32, ptr %30, align 4, !tbaa !157
  %32 = add i32 %31, %27
  store i32 %32, ptr %30, align 4, !tbaa !157
  %33 = load ptr, ptr %2, align 8, !tbaa !29
  %34 = getelementptr inbounds nuw %struct.APEContext, ptr %33, i32 0, i32 32
  %35 = load ptr, ptr %34, align 8, !tbaa !82
  %36 = getelementptr inbounds nuw i8, ptr %35, i32 1
  store ptr %36, ptr %34, align 8, !tbaa !82
  br label %40

37:                                               ; preds = %9
  %38 = load ptr, ptr %2, align 8, !tbaa !29
  %39 = getelementptr inbounds nuw %struct.APEContext, ptr %38, i32 0, i32 33
  store i32 1, ptr %39, align 8, !tbaa !95
  br label %40

40:                                               ; preds = %37, %22
  %41 = load ptr, ptr %2, align 8, !tbaa !29
  %42 = getelementptr inbounds nuw %struct.APEContext, ptr %41, i32 0, i32 24
  %43 = getelementptr inbounds nuw %struct.APERangecoder, ptr %42, i32 0, i32 0
  %44 = load i32, ptr %43, align 8, !tbaa !156
  %45 = shl i32 %44, 8
  %46 = load ptr, ptr %2, align 8, !tbaa !29
  %47 = getelementptr inbounds nuw %struct.APEContext, ptr %46, i32 0, i32 24
  %48 = getelementptr inbounds nuw %struct.APERangecoder, ptr %47, i32 0, i32 3
  %49 = load i32, ptr %48, align 4, !tbaa !157
  %50 = lshr i32 %49, 1
  %51 = and i32 %50, 255
  %52 = or i32 %45, %51
  %53 = load ptr, ptr %2, align 8, !tbaa !29
  %54 = getelementptr inbounds nuw %struct.APEContext, ptr %53, i32 0, i32 24
  %55 = getelementptr inbounds nuw %struct.APERangecoder, ptr %54, i32 0, i32 0
  store i32 %52, ptr %55, align 8, !tbaa !156
  %56 = load ptr, ptr %2, align 8, !tbaa !29
  %57 = getelementptr inbounds nuw %struct.APEContext, ptr %56, i32 0, i32 24
  %58 = getelementptr inbounds nuw %struct.APERangecoder, ptr %57, i32 0, i32 1
  %59 = load i32, ptr %58, align 4, !tbaa !154
  %60 = shl i32 %59, 8
  store i32 %60, ptr %58, align 4, !tbaa !154
  br label %3, !llvm.loop !158

61:                                               ; preds = %3
  ret void
}

; Function Attrs: nounwind uwtable
define internal void @entropy_decode_stereo_3900(ptr noundef %0, i32 noundef %1) #1 {
  %3 = alloca ptr, align 8
  %4 = alloca i32, align 4
  %5 = alloca ptr, align 8
  %6 = alloca ptr, align 8
  %7 = alloca i32, align 4
  store ptr %0, ptr %3, align 8, !tbaa !29
  store i32 %1, ptr %4, align 4, !tbaa !32
  call void @llvm.lifetime.start.p0(i64 8, ptr %5) #11
  %8 = load ptr, ptr %3, align 8, !tbaa !29
  %9 = getelementptr inbounds nuw %struct.APEContext, ptr %8, i32 0, i32 18
  %10 = getelementptr inbounds [2 x ptr], ptr %9, i64 0, i64 0
  %11 = load ptr, ptr %10, align 8, !tbaa !72
  store ptr %11, ptr %5, align 8, !tbaa !72
  call void @llvm.lifetime.start.p0(i64 8, ptr %6) #11
  %12 = load ptr, ptr %3, align 8, !tbaa !29
  %13 = getelementptr inbounds nuw %struct.APEContext, ptr %12, i32 0, i32 18
  %14 = getelementptr inbounds [2 x ptr], ptr %13, i64 0, i64 1
  %15 = load ptr, ptr %14, align 8, !tbaa !72
  store ptr %15, ptr %6, align 8, !tbaa !72
  call void @llvm.lifetime.start.p0(i64 4, ptr %7) #11
  %16 = load i32, ptr %4, align 4, !tbaa !32
  store i32 %16, ptr %7, align 4, !tbaa !32
  br label %17

17:                                               ; preds = %21, %2
  %18 = load i32, ptr %4, align 4, !tbaa !32
  %19 = add nsw i32 %18, -1
  store i32 %19, ptr %4, align 4, !tbaa !32
  %20 = icmp ne i32 %18, 0
  br i1 %20, label %21, label %28

21:                                               ; preds = %17
  %22 = load ptr, ptr %3, align 8, !tbaa !29
  %23 = load ptr, ptr %3, align 8, !tbaa !29
  %24 = getelementptr inbounds nuw %struct.APEContext, ptr %23, i32 0, i32 26
  %25 = call i32 @ape_decode_value_3900(ptr noundef %22, ptr noundef %24)
  %26 = load ptr, ptr %5, align 8, !tbaa !72
  %27 = getelementptr inbounds nuw i32, ptr %26, i32 1
  store ptr %27, ptr %5, align 8, !tbaa !72
  store i32 %25, ptr %26, align 4, !tbaa !32
  br label %17, !llvm.loop !114

28:                                               ; preds = %17
  %29 = load ptr, ptr %3, align 8, !tbaa !29
  call void @range_dec_normalize(ptr noundef %29)
  %30 = load ptr, ptr %3, align 8, !tbaa !29
  %31 = getelementptr inbounds nuw %struct.APEContext, ptr %30, i32 0, i32 32
  %32 = load ptr, ptr %31, align 8, !tbaa !82
  %33 = getelementptr inbounds i8, ptr %32, i64 -1
  store ptr %33, ptr %31, align 8, !tbaa !82
  %34 = load ptr, ptr %3, align 8, !tbaa !29
  call void @range_start_decoding(ptr noundef %34)
  br label %35

35:                                               ; preds = %39, %28
  %36 = load i32, ptr %7, align 4, !tbaa !32
  %37 = add nsw i32 %36, -1
  store i32 %37, ptr %7, align 4, !tbaa !32
  %38 = icmp ne i32 %36, 0
  br i1 %38, label %39, label %46

39:                                               ; preds = %35
  %40 = load ptr, ptr %3, align 8, !tbaa !29
  %41 = load ptr, ptr %3, align 8, !tbaa !29
  %42 = getelementptr inbounds nuw %struct.APEContext, ptr %41, i32 0, i32 25
  %43 = call i32 @ape_decode_value_3900(ptr noundef %40, ptr noundef %42)
  %44 = load ptr, ptr %6, align 8, !tbaa !72
  %45 = getelementptr inbounds nuw i32, ptr %44, i32 1
  store ptr %45, ptr %6, align 8, !tbaa !72
  store i32 %43, ptr %44, align 4, !tbaa !32
  br label %35, !llvm.loop !115

46:                                               ; preds = %35
  call void @llvm.lifetime.end.p0(i64 4, ptr %7) #11
  call void @llvm.lifetime.end.p0(i64 8, ptr %6) #11
  call void @llvm.lifetime.end.p0(i64 8, ptr %5) #11
  ret void
}