; Function Attrs: nounwind uwtable
define internal void @entropy_decode_stereo_3900(ptr noundef captures(none) %0, i32 noundef %1) #1 {
  %3 = getelementptr inbounds nuw i8, ptr %0, i64 7168
  %4 = load ptr, ptr %3, align 8, !tbaa !85
  %.not17 = icmp eq i32 %1, 0
  br i1 %.not17, label %._crit_edge, label %.lr.ph

.lr.ph:                                           ; preds = %2
  %5 = getelementptr inbounds nuw i8, ptr %0, i64 7160
  %6 = load ptr, ptr %5, align 8, !tbaa !85
  %7 = getelementptr inbounds nuw i8, ptr %0, i64 7264
  br label %8

8:                                                ; preds = %.lr.ph, %8
  %.01419 = phi ptr [ %6, %.lr.ph ], [ %11, %8 ]
  %.01518 = phi i32 [ %1, %.lr.ph ], [ %9, %8 ]
  %9 = add nsw i32 %.01518, -1
  %10 = tail call fastcc i32 @ape_decode_value_3900(ptr noundef nonnull %0, ptr noundef nonnull %7)
  %11 = getelementptr inbounds nuw i8, ptr %.01419, i64 4
  store i32 %10, ptr %.01419, align 4, !tbaa !61
  %.not = icmp eq i32 %9, 0
  br i1 %.not, label %._crit_edge, label %8, !llvm.loop !108

._crit_edge:                                      ; preds = %8, %2
  %12 = getelementptr inbounds nuw i8, ptr %0, i64 7240
  %13 = getelementptr inbounds nuw i8, ptr %0, i64 7244
  %.promoted.i = load i32, ptr %13, align 4, !tbaa !109
  %14 = icmp ult i32 %.promoted.i, 8388609
  br i1 %14, label %.lr.ph.i, label %._crit_edge.range_dec_normalize.exit_crit_edge

._crit_edge.range_dec_normalize.exit_crit_edge:   ; preds = %._crit_edge
  %.phi.trans.insert = getelementptr inbounds nuw i8, ptr %0, i64 7568
  %.pre = load ptr, ptr %.phi.trans.insert, align 8, !tbaa !72
  br label %range_dec_normalize.exit

.lr.ph.i:                                         ; preds = %._crit_edge
  %15 = getelementptr inbounds nuw i8, ptr %0, i64 7252
  %16 = getelementptr inbounds nuw i8, ptr %0, i64 7568
  %17 = getelementptr inbounds nuw i8, ptr %0, i64 7552
  %18 = load ptr, ptr %17, align 8, !tbaa !69
  %19 = getelementptr inbounds nuw i8, ptr %0, i64 7576
  %.promoted12.i = load i32, ptr %15, align 4, !tbaa !110
  %.promoted13.i = load ptr, ptr %16, align 8, !tbaa !72
  %.promoted14.i = load i32, ptr %12, align 8, !tbaa !111
  br label %20

20:                                               ; preds = %33, %.lr.ph.i
  %21 = phi i32 [ %.promoted14.i, %.lr.ph.i ], [ %39, %33 ]
  %22 = phi ptr [ %.promoted13.i, %.lr.ph.i ], [ %34, %33 ]
  %23 = phi i32 [ %.promoted12.i, %.lr.ph.i ], [ %35, %33 ]
  %24 = phi i32 [ %.promoted.i, %.lr.ph.i ], [ %40, %33 ]
  %25 = shl i32 %23, 8
  store i32 %25, ptr %15, align 4, !tbaa !110
  %26 = icmp ult ptr %22, %18
  br i1 %26, label %27, label %32

27:                                               ; preds = %20
  %28 = load i8, ptr %22, align 1, !tbaa !47
  %29 = zext i8 %28 to i32
  %30 = or disjoint i32 %25, %29
  store i32 %30, ptr %15, align 4, !tbaa !110
  %31 = getelementptr inbounds nuw i8, ptr %22, i64 1
  store ptr %31, ptr %16, align 8, !tbaa !72
  br label %33

32:                                               ; preds = %20
  store i32 1, ptr %19, align 8, !tbaa !88
  br label %33

33:                                               ; preds = %32, %27
  %34 = phi ptr [ %22, %32 ], [ %31, %27 ]
  %35 = phi i32 [ %25, %32 ], [ %30, %27 ]
  %36 = shl i32 %21, 8
  %37 = lshr i32 %35, 1
  %38 = and i32 %37, 255
  %39 = or disjoint i32 %38, %36
  store i32 %39, ptr %12, align 8, !tbaa !111
  %40 = shl nuw i32 %24, 8
  store i32 %40, ptr %13, align 4, !tbaa !109
  %41 = icmp ult i32 %24, 32769
  br i1 %41, label %20, label %range_dec_normalize.exit, !llvm.loop !112

range_dec_normalize.exit:                         ; preds = %33, %._crit_edge.range_dec_normalize.exit_crit_edge
  %42 = phi ptr [ %.pre, %._crit_edge.range_dec_normalize.exit_crit_edge ], [ %34, %33 ]
  %43 = getelementptr inbounds i8, ptr %42, i64 -1
  %44 = load i8, ptr %43, align 1, !tbaa !47
  %45 = zext i8 %44 to i32
  %46 = getelementptr inbounds nuw i8, ptr %0, i64 7252
  store i32 %45, ptr %46, align 4, !tbaa !110
  %47 = lshr i32 %45, 1
  store i32 %47, ptr %12, align 8, !tbaa !111
  store i32 128, ptr %13, align 4, !tbaa !109
  br i1 %.not17, label %._crit_edge24, label %.lr.ph23

.lr.ph23:                                         ; preds = %range_dec_normalize.exit
  %48 = getelementptr inbounds nuw i8, ptr %0, i64 7256
  br label %49

49:                                               ; preds = %.lr.ph23, %49
  %.022 = phi i32 [ %1, %.lr.ph23 ], [ %50, %49 ]
  %.01321 = phi ptr [ %4, %.lr.ph23 ], [ %52, %49 ]
  %50 = add nsw i32 %.022, -1
  %51 = tail call fastcc i32 @ape_decode_value_3900(ptr noundef nonnull %0, ptr noundef nonnull %48)
  %52 = getelementptr inbounds nuw i8, ptr %.01321, i64 4
  store i32 %51, ptr %.01321, align 4, !tbaa !61
  %.not16 = icmp eq i32 %50, 0
  br i1 %.not16, label %._crit_edge24, label %49, !llvm.loop !113

._crit_edge24:                                    ; preds = %49, %range_dec_normalize.exit
  ret void
}